; Function Attrs: mustprogress nofree norecurse nosync nounwind willreturn memory(read, inaccessiblemem: none) uwtable
define noundef range(i32 0, 256) i32 @_Z12getGroupTypeRK16SimulationGroups23SimulationAtomGroupTypei(ptr noundef nonnull readonly align 8 captures(none) dereferenceable(504) %0, i32 noundef %1, i32 noundef %2) local_unnamed_addr #15 {
  %4 = getelementptr inbounds nuw i8, ptr %0, i64 264
  %5 = sext i32 %1 to i64
  %6 = getelementptr inbounds nuw [10 x %"class.std::vector.29"], ptr %4, i64 0, i64 %5
  %7 = load ptr, ptr %6, align 8, !tbaa !4
  %8 = getelementptr inbounds nuw i8, ptr %6, i64 8
  %9 = load ptr, ptr %8, align 8, !tbaa !4
  %10 = icmp eq ptr %7, %9
  br i1 %10, label %16, label %11

11:                                               ; preds = %3
  %12 = sext i32 %2 to i64
  %13 = getelementptr inbounds nuw i8, ptr %7, i64 %12
  %14 = load i8, ptr %13, align 1, !tbaa !160
  %15 = zext i8 %14 to i32
  br label %16

16:                                               ; preds = %3, %11
  %17 = phi i32 [ %15, %11 ], [ 0, %3 ]
  ret i32 %17
}